; Function Attrs: nounwind uwtable
define internal i32 @mov_check_bitstream(ptr readnone captures(none) %0, ptr noundef %1, ptr noundef readonly captures(none) %2) #0 {
  %4 = getelementptr inbounds nuw i8, ptr %1, i64 16
  %5 = load ptr, ptr %4, align 8, !tbaa !176
  %6 = getelementptr inbounds nuw i8, ptr %5, i64 4
  %7 = load i32, ptr %6, align 4, !tbaa !84
  switch i32 %7, label %19 [
    i32 86018, label %8
    i32 167, label %.sink.split
  ]

8:                                                ; preds = %3
  %9 = getelementptr inbounds nuw i8, ptr %2, i64 32
  %10 = load i32, ptr %9, align 8, !tbaa !25
  %11 = icmp sgt i32 %10, 2
  br i1 %11, label %12, label %19

12:                                               ; preds = %8
  %13 = getelementptr inbounds nuw i8, ptr %2, i64 24
  %14 = load ptr, ptr %13, align 8, !tbaa !87
  %15 = load i16, ptr %14, align 1, !tbaa !88
  %16 = tail call i16 @llvm.bswap.i16(i16 %15)
  %17 = icmp ugt i16 %16, -17
  br i1 %17, label %.sink.split, label %19

.sink.split:                                      ; preds = %3, %12
  %.str.633.sink = phi ptr [ @.str.632, %12 ], [ @.str.633, %3 ]
  %18 = tail call i32 @ff_stream_add_bitstream_filter(ptr noundef nonnull %1, ptr noundef nonnull %.str.633.sink, ptr noundef null) #16
  br label %19

19:                                               ; preds = %.sink.split, %3, %8, %12
  %.0 = phi i32 [ 1, %12 ], [ 1, %8 ], [ 1, %3 ], [ %18, %.sink.split ]
  ret i32 %.0
}